target datalayout = "e-m:e-p270:32:32-p271:32:32-p272:64:64-i64:64-i128:128-f80:128-n8:16:32:64-S128"
target triple = "x86_64-pc-linux-gnu"

@q2931_handle = internal global ptr null, align 8
@data_handle = internal global ptr null, align 8
@sscf_nni_handle = internal global ptr null, align 8
@alcap_handle = internal global ptr null, align 8
@nbap_handle = internal global ptr null, align 8
@initialize_handles_once.initialized = internal global i32 0, align 4
@.str.44 = private unnamed_addr constant [6 x i8] c"q2931\00", align 1
@.str.45 = private unnamed_addr constant [5 x i8] c"data\00", align 1
@.str.46 = private unnamed_addr constant [9 x i8] c"sscf-nni\00", align 1
@.str.47 = private unnamed_addr constant [6 x i8] c"alcap\00", align 1
@.str.48 = private unnamed_addr constant [5 x i8] c"nbap\00", align 1

; Function Attrs: nounwind uwtable
define internal void @initialize_handles_once() #0 {
  %1 = load i32, ptr @initialize_handles_once.initialized, align 4
  %2 = icmp ne i32 %1, 0
  br i1 %2, label %9, label %3

3:                                                ; preds = %0
  %4 = call ptr @find_dissector(ptr noundef @.str.44)
  store ptr %4, ptr @q2931_handle, align 8
  %5 = call ptr @find_dissector(ptr noundef @.str.45)
  store ptr %5, ptr @data_handle, align 8
  %6 = call ptr @find_dissector(ptr noundef @.str.46)
  store ptr %6, ptr @sscf_nni_handle, align 8
  %7 = call ptr @find_dissector(ptr noundef @.str.47)
  store ptr %7, ptr @alcap_handle, align 8
  %8 = call ptr @find_dissector(ptr noundef @.str.48)
  store ptr %8, ptr @nbap_handle, align 8
  store i32 1, ptr @initialize_handles_once.initialized, align 4
  br label %9

9:                                                ; preds = %3, %0
  ret void
}

; Function Attrs: nounwind uwtable
define hidden i32 @sscop_allowed_subdissector(ptr noundef %0) #0 {
  %2 = alloca i32, align 4
  %3 = alloca ptr, align 8
  store ptr %0, ptr %3, align 8
  call void @initialize_handles_once()
  %4 = load ptr, ptr %3, align 8
  %5 = load ptr, ptr @q2931_handle, align 8
  %6 = icmp eq ptr %4, %5
  br i1 %6, label %23, label %7

7:                                                ; preds = %1
  %8 = load ptr, ptr %3, align 8
  %9 = load ptr, ptr @data_handle, align 8
  %10 = icmp eq ptr %8, %9
  br i1 %10, label %23, label %11

11:                                               ; preds = %7
  %12 = load ptr, ptr %3, align 8
  %13 = load ptr, ptr @sscf_nni_handle, align 8
  %14 = icmp eq ptr %12, %13
  br i1 %14, label %23, label %15

15:                                               ; preds = %11
  %16 = load ptr, ptr %3, align 8
  %17 = load ptr, ptr @alcap_handle, align 8
  %18 = icmp eq ptr %16, %17
  br i1 %18, label %23, label %19

19:                                               ; preds = %15
  %20 = load ptr, ptr %3, align 8
  %21 = load ptr, ptr @nbap_handle, align 8
  %22 = icmp eq ptr %20, %21
  br i1 %22, label %23, label %24

23:                                               ; preds = %19, %15, %11, %7, %1
  store i32 1, ptr %2, align 4
  br label %25

24:                                               ; preds = %19
  store i32 0, ptr %2, align 4
  br label %25

25:                                               ; preds = %24, %23
  %26 = load i32, ptr %2, align 4
  ret i32 %26
}