; Function Attrs: nounwind uwtable
define hidden range(i32 0, 2) i32 @sscop_allowed_subdissector(ptr noundef readnone %0) local_unnamed_addr #0 {
  %.b.i = load i1, ptr @initialize_handles_once.initialized, align 4
  br i1 %.b.i, label %.initialize_handles_once.exit_crit_edge, label %2

.initialize_handles_once.exit_crit_edge:          ; preds = %1
  %.pre = load ptr, ptr @nbap_handle, align 8
  br label %initialize_handles_once.exit

2:                                                ; preds = %1
  %3 = tail call ptr @find_dissector(ptr noundef nonnull @.str.44) #2
  store ptr %3, ptr @q2931_handle, align 8
  %4 = tail call ptr @find_dissector(ptr noundef nonnull @.str.45) #2
  store ptr %4, ptr @data_handle, align 8
  %5 = tail call ptr @find_dissector(ptr noundef nonnull @.str.46) #2
  store ptr %5, ptr @sscf_nni_handle, align 8
  %6 = tail call ptr @find_dissector(ptr noundef nonnull @.str.47) #2
  store ptr %6, ptr @alcap_handle, align 8
  %7 = tail call ptr @find_dissector(ptr noundef nonnull @.str.48) #2
  store ptr %7, ptr @nbap_handle, align 8
  store i1 true, ptr @initialize_handles_once.initialized, align 4
  br label %initialize_handles_once.exit

initialize_handles_once.exit:                     ; preds = %.initialize_handles_once.exit_crit_edge, %2
  %8 = phi ptr [ %.pre, %.initialize_handles_once.exit_crit_edge ], [ %7, %2 ]
  %9 = load ptr, ptr @q2931_handle, align 8
  %10 = icmp eq ptr %0, %9
  %11 = load ptr, ptr @data_handle, align 8
  %12 = icmp eq ptr %0, %11
  %or.cond = select i1 %10, i1 true, i1 %12
  %13 = load ptr, ptr @sscf_nni_handle, align 8
  %14 = icmp eq ptr %0, %13
  %or.cond8 = select i1 %or.cond, i1 true, i1 %14
  %15 = load ptr, ptr @alcap_handle, align 8
  %16 = icmp eq ptr %0, %15
  %or.cond10 = select i1 %or.cond8, i1 true, i1 %16
  %17 = icmp eq ptr %0, %8
  %or.cond12 = select i1 %or.cond10, i1 true, i1 %17
  %.0 = zext i1 %or.cond12 to i32
  ret i32 %.0
}